target datalayout = "e-m:e-p270:32:32-p271:32:32-p272:64:64-i64:64-i128:128-f80:128-n8:16:32:64-S128"
target triple = "x86_64-pc-linux-gnu"

%"struct.(anonymous namespace)::NoTTIImpl" = type { %"class.llvm::TargetTransformInfoImplCRTPBase" }
%"class.llvm::TargetTransformInfoImplCRTPBase" = type { %"class.llvm::TargetTransformInfoImplBase" }
%"class.llvm::TargetTransformInfoImplBase" = type { ptr }
%"class.llvm::TargetTransformInfo::Model" = type { %"class.llvm::TargetTransformInfo::Concept", %"struct.(anonymous namespace)::NoTTIImpl" }
%"class.llvm::TargetTransformInfo::Concept" = type { ptr }
%"struct.llvm::Align" = type { i8 }
%"class.llvm::TypeSize" = type { %"class.llvm::details::FixedOrScalableQuantity.base.208", [7 x i8] }
%"class.llvm::details::FixedOrScalableQuantity.base.208" = type <{ i64, i8 }>
%"class.llvm::details::FixedOrScalableQuantity.207" = type <{ i64, i8, [7 x i8] }>

; Function Attrs: mustprogress nounwind uwtable
define linkonce_odr hidden void @_ZN4llvm7details23FixedOrScalableQuantityINS_8TypeSizeEmEC2Emb(ptr noundef nonnull align 8 dereferenceable(9) %0, i64 noundef %1, i1 noundef zeroext %2) unnamed_addr #1 comdat align 2 {
  %4 = alloca ptr, align 8
  %5 = alloca i64, align 8
  %6 = alloca i8, align 1
  store ptr %0, ptr %4, align 8
  store i64 %1, ptr %5, align 8
  %7 = zext i1 %2 to i8
  store i8 %7, ptr %6, align 1
  %8 = load ptr, ptr %4, align 8
  %9 = getelementptr inbounds nuw %"class.llvm::details::FixedOrScalableQuantity.207", ptr %8, i32 0, i32 0
  %10 = load i64, ptr %5, align 8
  store i64 %10, ptr %9, align 8
  %11 = getelementptr inbounds nuw %"class.llvm::details::FixedOrScalableQuantity.207", ptr %8, i32 0, i32 1
  %12 = load i8, ptr %6, align 1
  %13 = trunc i8 %12 to i1
  %14 = zext i1 %13 to i8
  store i8 %14, ptr %11, align 8
  ret void
}

; Function Attrs: mustprogress nounwind uwtable
define linkonce_odr hidden noundef i64 @_ZN4llvm15alignToPowerOf2ImimEET1_T_T0_(i64 noundef %0, i32 noundef %1) #1 comdat {
  %3 = alloca i64, align 8
  %4 = alloca i32, align 4
  %5 = alloca i64, align 8
  store i64 %0, ptr %3, align 8
  store i32 %1, ptr %4, align 4
  %6 = load i32, ptr %4, align 4
  %7 = sext i32 %6 to i64
  %8 = sub i64 0, %7
  store i64 %8, ptr %5, align 8
  %9 = load i64, ptr %3, align 8
  %10 = load i32, ptr %4, align 4
  %11 = sub nsw i32 %10, 1
  %12 = sext i32 %11 to i64
  %13 = add i64 %9, %12
  %14 = load i64, ptr %5, align 8
  %15 = and i64 %13, %14
  ret i64 %15
}

; Function Attrs: mustprogress nounwind uwtable
define linkonce_odr hidden noundef zeroext i1 @_ZN4llvm14has_single_bitIjvEEbT_(i32 noundef %0) #1 comdat {
  %2 = alloca i32, align 4
  store i32 %0, ptr %2, align 4
  %3 = load i32, ptr %2, align 4
  %4 = icmp ne i32 %3, 0
  br i1 %4, label %5, label %11

5:                                                ; preds = %1
  %6 = load i32, ptr %2, align 4
  %7 = load i32, ptr %2, align 4
  %8 = sub i32 %7, 1
  %9 = and i32 %6, %8
  %10 = icmp eq i32 %9, 0
  br label %11

11:                                               ; preds = %5, %1
  %12 = phi i1 [ false, %1 ], [ %10, %5 ]
  ret i1 %12
}

; Function Attrs: mustprogress nounwind uwtable
define linkonce_odr hidden noundef i64 @_ZNK4llvm5Align5valueEv(ptr noundef nonnull align 1 dereferenceable(1) %0) #1 comdat align 2 {
  %2 = alloca ptr, align 8
  store ptr %0, ptr %2, align 8
  %3 = load ptr, ptr %2, align 8
  %4 = getelementptr inbounds nuw %"struct.llvm::Align", ptr %3, i32 0, i32 0
  %5 = load i8, ptr %4, align 1
  %6 = zext i8 %5 to i32
  %7 = zext i32 %6 to i64
  %8 = shl i64 1, %7
  ret i64 %8
}

; Function Attrs: mustprogress nounwind uwtable
define linkonce_odr hidden void @_ZN4llvm8TypeSizeC2Emb(ptr noundef nonnull align 8 dereferenceable(9) %0, i64 noundef %1, i1 noundef zeroext %2) unnamed_addr #1 comdat align 2 {
  %4 = alloca ptr, align 8
  %5 = alloca i64, align 8
  %6 = alloca i8, align 1
  store ptr %0, ptr %4, align 8
  store i64 %1, ptr %5, align 8
  %7 = zext i1 %2 to i8
  store i8 %7, ptr %6, align 1
  %8 = load ptr, ptr %4, align 8
  %9 = load i64, ptr %5, align 8
  %10 = load i8, ptr %6, align 1
  %11 = trunc i8 %10 to i1
  call void @_ZN4llvm7details23FixedOrScalableQuantityINS_8TypeSizeEmEC2Emb(ptr noundef nonnull align 8 dereferenceable(9) %8, i64 noundef %9, i1 noundef zeroext %11)
  ret void
}

; Function Attrs: mustprogress nounwind uwtable
define linkonce_odr hidden noundef zeroext i1 @_ZNK4llvm7details23FixedOrScalableQuantityINS_8TypeSizeEmE10isScalableEv(ptr noundef nonnull align 8 dereferenceable(9) %0) #1 comdat align 2 {
  %2 = alloca ptr, align 8
  store ptr %0, ptr %2, align 8
  %3 = load ptr, ptr %2, align 8
  %4 = getelementptr inbounds nuw %"class.llvm::details::FixedOrScalableQuantity.207", ptr %3, i32 0, i32 1
  %5 = load i8, ptr %4, align 8
  %6 = trunc i8 %5 to i1
  ret i1 %6
}

; Function Attrs: mustprogress nounwind uwtable
define linkonce_odr hidden noundef i64 @_ZNK4llvm7details23FixedOrScalableQuantityINS_8TypeSizeEmE16getKnownMinValueEv(ptr noundef nonnull align 8 dereferenceable(9) %0) #1 comdat align 2 {
  %2 = alloca ptr, align 8
  store ptr %0, ptr %2, align 8
  %3 = load ptr, ptr %2, align 8
  %4 = getelementptr inbounds nuw %"class.llvm::details::FixedOrScalableQuantity.207", ptr %3, i32 0, i32 0
  %5 = load i64, ptr %4, align 8
  ret i64 %5
}

; Function Attrs: mustprogress nounwind uwtable
define linkonce_odr hidden { i64, i8 } @_ZNK4llvm10DataLayout22getTypeStoreSizeInBitsEPNS_4TypeE(ptr noundef nonnull align 8 dereferenceable(512) %0, ptr noundef %1) #1 comdat align 2 {
  %3 = alloca %"class.llvm::TypeSize", align 8
  %4 = alloca ptr, align 8
  %5 = alloca ptr, align 8
  %6 = alloca %"class.llvm::TypeSize", align 8
  %7 = alloca { i64, i8 }, align 8
  %8 = alloca i64, align 8
  store ptr %0, ptr %4, align 8
  store ptr %1, ptr %5, align 8
  %9 = load ptr, ptr %4, align 8
  %10 = load ptr, ptr %5, align 8
  %11 = call { i64, i8 } @_ZNK4llvm10DataLayout17getTypeSizeInBitsEPNS_4TypeE(ptr noundef nonnull align 8 dereferenceable(512) %9, ptr noundef %10)
  store { i64, i8 } %11, ptr %7, align 8
  call void @llvm.memcpy.p0.p0.i64(ptr align 8 %6, ptr align 8 %7, i64 9, i1 false)
  %12 = call noundef i64 @_ZNK4llvm7details23FixedOrScalableQuantityINS_8TypeSizeEmE16getKnownMinValueEv(ptr noundef nonnull align 8 dereferenceable(9) %6)
  %13 = call noundef i64 @_ZN4llvm15alignToPowerOf2ImimEET1_T_T0_(i64 noundef %12, i32 noundef 8)
  store i64 %13, ptr %8, align 8
  %14 = load i64, ptr %8, align 8
  %15 = call noundef zeroext i1 @_ZNK4llvm7details23FixedOrScalableQuantityINS_8TypeSizeEmE10isScalableEv(ptr noundef nonnull align 8 dereferenceable(9) %6)
  call void @_ZN4llvm8TypeSizeC2Emb(ptr noundef nonnull align 8 dereferenceable(9) %3, i64 noundef %14, i1 noundef zeroext %15)
  %16 = load { i64, i8 }, ptr %3, align 8
  ret { i64, i8 } %16
}

; Function Attrs: mustprogress nounwind uwtable
define linkonce_odr hidden noundef zeroext i1 @_ZN4llvm13isPowerOf2_32Ej(i32 noundef %0) #1 comdat {
  %2 = alloca i32, align 4
  store i32 %0, ptr %2, align 4
  %3 = load i32, ptr %2, align 4
  %4 = call noundef zeroext i1 @_ZN4llvm14has_single_bitIjvEEbT_(i32 noundef %3) #2
  ret i1 %4
}

; Function Attrs: mustprogress nounwind uwtable
define linkonce_odr hidden noundef zeroext i1 @_ZN4llvmgeENS_5AlignEm(i8 %0, i64 noundef %1) #1 comdat {
  %3 = alloca %"struct.llvm::Align", align 1
  %4 = alloca i64, align 8
  %5 = getelementptr inbounds nuw %"struct.llvm::Align", ptr %3, i32 0, i32 0
  store i8 %0, ptr %5, align 1
  store i64 %1, ptr %4, align 8
  %6 = call noundef i64 @_ZNK4llvm5Align5valueEv(ptr noundef nonnull align 1 dereferenceable(1) %3)
  %7 = load i64, ptr %4, align 8
  %8 = icmp uge i64 %6, %7
  ret i1 %8
}

; Function Attrs: mustprogress nounwind uwtable
define linkonce_odr hidden { i64, i8 } @_ZNK4llvm10DataLayout16getTypeStoreSizeEPNS_4TypeE(ptr noundef nonnull align 8 dereferenceable(512) %0, ptr noundef %1) #1 comdat align 2 {
  %3 = alloca %"class.llvm::TypeSize", align 8
  %4 = alloca ptr, align 8
  %5 = alloca ptr, align 8
  %6 = alloca %"class.llvm::TypeSize", align 8
  %7 = alloca { i64, i8 }, align 8
  store ptr %0, ptr %4, align 8
  store ptr %1, ptr %5, align 8
  %8 = load ptr, ptr %4, align 8
  %9 = load ptr, ptr %5, align 8
  %10 = call { i64, i8 } @_ZNK4llvm10DataLayout22getTypeStoreSizeInBitsEPNS_4TypeE(ptr noundef nonnull align 8 dereferenceable(512) %8, ptr noundef %9)
  store { i64, i8 } %10, ptr %7, align 8
  call void @llvm.memcpy.p0.p0.i64(ptr align 8 %6, ptr align 8 %7, i64 9, i1 false)
  %11 = call noundef i64 @_ZNK4llvm7details23FixedOrScalableQuantityINS_8TypeSizeEmE16getKnownMinValueEv(ptr noundef nonnull align 8 dereferenceable(9) %6)
  %12 = udiv i64 %11, 8
  %13 = call noundef zeroext i1 @_ZNK4llvm7details23FixedOrScalableQuantityINS_8TypeSizeEmE10isScalableEv(ptr noundef nonnull align 8 dereferenceable(9) %6)
  call void @_ZN4llvm8TypeSizeC2Emb(ptr noundef nonnull align 8 dereferenceable(9) %3, i64 noundef %12, i1 noundef zeroext %13)
  %14 = load { i64, i8 }, ptr %3, align 8
  ret { i64, i8 } %14
}

; Function Attrs: mustprogress nounwind uwtable
define linkonce_odr hidden noundef zeroext i1 @_ZNK4llvm27TargetTransformInfoImplBase14isLegalNTStoreEPNS_4TypeENS_5AlignE(ptr noundef nonnull align 8 dereferenceable(8) %0, ptr noundef %1, i8 %2) #1 comdat align 2 {
  %4 = alloca %"struct.llvm::Align", align 1
  %5 = alloca ptr, align 8
  %6 = alloca ptr, align 8
  %7 = alloca i32, align 4
  %8 = alloca %"class.llvm::TypeSize", align 8
  %9 = alloca { i64, i8 }, align 8
  %10 = alloca %"struct.llvm::Align", align 1
  %11 = getelementptr inbounds nuw %"struct.llvm::Align", ptr %4, i32 0, i32 0
  store i8 %2, ptr %11, align 1
  store ptr %0, ptr %5, align 8
  store ptr %1, ptr %6, align 8
  %12 = load ptr, ptr %5, align 8
  %13 = getelementptr inbounds nuw %"class.llvm::TargetTransformInfoImplBase", ptr %12, i32 0, i32 0
  %14 = load ptr, ptr %13, align 8
  %15 = load ptr, ptr %6, align 8
  %16 = call { i64, i8 } @_ZNK4llvm10DataLayout16getTypeStoreSizeEPNS_4TypeE(ptr noundef nonnull align 8 dereferenceable(512) %14, ptr noundef %15)
  store { i64, i8 } %16, ptr %9, align 8
  call void @llvm.memcpy.p0.p0.i64(ptr align 8 %8, ptr align 8 %9, i64 9, i1 false)
  %17 = call noundef i64 @_ZNK4llvm8TypeSizecvmEv(ptr noundef nonnull align 8 dereferenceable(9) %8)
  %18 = trunc i64 %17 to i32
  store i32 %18, ptr %7, align 4
  call void @llvm.memcpy.p0.p0.i64(ptr align 1 %10, ptr align 1 %4, i64 1, i1 false)
  %19 = load i32, ptr %7, align 4
  %20 = zext i32 %19 to i64
  %21 = getelementptr inbounds nuw %"struct.llvm::Align", ptr %10, i32 0, i32 0
  %22 = load i8, ptr %21, align 1
  %23 = call noundef zeroext i1 @_ZN4llvmgeENS_5AlignEm(i8 %22, i64 noundef %20)
  br i1 %23, label %24, label %27

24:                                               ; preds = %3
  %25 = load i32, ptr %7, align 4
  %26 = call noundef zeroext i1 @_ZN4llvm13isPowerOf2_32Ej(i32 noundef %25)
  br label %27

27:                                               ; preds = %24, %3
  %28 = phi i1 [ false, %3 ], [ %26, %24 ]
  ret i1 %28
}

; Function Attrs: mustprogress nounwind uwtable
define internal noundef zeroext i1 @_ZN4llvm19TargetTransformInfo5ModelIN12_GLOBAL__N_19NoTTIImplEE14isLegalNTStoreEPNS_4TypeENS_5AlignE(ptr noundef nonnull align 8 dereferenceable(16) %0, ptr noundef %1, i8 %2) unnamed_addr #1 align 2 {
  %4 = alloca %"struct.llvm::Align", align 1
  %5 = alloca ptr, align 8
  %6 = alloca ptr, align 8
  %7 = alloca %"struct.llvm::Align", align 1
  %8 = getelementptr inbounds nuw %"struct.llvm::Align", ptr %4, i32 0, i32 0
  store i8 %2, ptr %8, align 1
  store ptr %0, ptr %5, align 8
  store ptr %1, ptr %6, align 8
  %9 = load ptr, ptr %5, align 8
  %10 = getelementptr inbounds nuw %"class.llvm::TargetTransformInfo::Model", ptr %9, i32 0, i32 1
  %11 = load ptr, ptr %6, align 8
  call void @llvm.memcpy.p0.p0.i64(ptr align 1 %7, ptr align 1 %4, i64 1, i1 false)
  %12 = getelementptr inbounds nuw %"struct.llvm::Align", ptr %7, i32 0, i32 0
  %13 = load i8, ptr %12, align 1
  %14 = call noundef zeroext i1 @_ZNK4llvm27TargetTransformInfoImplBase14isLegalNTStoreEPNS_4TypeENS_5AlignE(ptr noundef nonnull align 8 dereferenceable(8) %10, ptr noundef %11, i8 %13)
  ret i1 %14
}