; Function Attrs: mustprogress nounwind uwtable
define internal noundef zeroext i1 @_ZN4llvm19TargetTransformInfo5ModelIN12_GLOBAL__N_19NoTTIImplEE14isLegalNTStoreEPNS_4TypeENS_5AlignE(ptr nocapture noundef nonnull readonly align 8 dereferenceable(16) %0, ptr noundef %1, i8 %2) unnamed_addr #0 align 2 {
  %4 = alloca %"class.llvm::TypeSize", align 8
  %5 = getelementptr inbounds nuw i8, ptr %0, i64 8
  call void @llvm.lifetime.start.p0(i64 16, ptr nonnull %4)
  %6 = load ptr, ptr %5, align 8
  %7 = tail call { i64, i8 } @_ZNK4llvm10DataLayout17getTypeSizeInBitsEPNS_4TypeE(ptr noundef nonnull align 8 dereferenceable(512) %6, ptr noundef %1)
  %.fca.0.extract.i.i.i = extractvalue { i64, i8 } %7, 0
  %.fca.1.extract.i.i.i = extractvalue { i64, i8 } %7, 1
  %8 = add i64 %.fca.0.extract.i.i.i, 7
  %9 = lshr i64 %8, 3
  %10 = and i8 %.fca.1.extract.i.i.i, 1
  store i64 %9, ptr %4, align 8
  %.sroa.2.0..sroa_idx.i = getelementptr inbounds i8, ptr %4, i64 8
  store i8 %10, ptr %.sroa.2.0..sroa_idx.i, align 8
  %11 = call noundef i64 @_ZNK4llvm8TypeSizecvmEv(ptr noundef nonnull align 8 dereferenceable(9) %4) #25
  %12 = and i64 %11, 4294967295
  %13 = zext nneg i8 %2 to i64
  %14 = shl nuw i64 1, %13
  %.not.i = icmp ult i64 %14, %12
  br i1 %.not.i, label %_ZNK4llvm27TargetTransformInfoImplBase14isLegalNTStoreEPNS_4TypeENS_5AlignE.exit, label %15

15:                                               ; preds = %3
  %16 = trunc i64 %11 to i32
  %.not.i.i.i = icmp eq i32 %16, 0
  br i1 %.not.i.i.i, label %_ZNK4llvm27TargetTransformInfoImplBase14isLegalNTStoreEPNS_4TypeENS_5AlignE.exit, label %17

17:                                               ; preds = %15
  %18 = call range(i32 1, 33) i32 @llvm.ctpop.i32(i32 %16)
  %19 = icmp ult i32 %18, 2
  br label %_ZNK4llvm27TargetTransformInfoImplBase14isLegalNTStoreEPNS_4TypeENS_5AlignE.exit

_ZNK4llvm27TargetTransformInfoImplBase14isLegalNTStoreEPNS_4TypeENS_5AlignE.exit: ; preds = %3, %15, %17
  %20 = phi i1 [ false, %3 ], [ false, %15 ], [ %19, %17 ]
  call void @llvm.lifetime.end.p0(i64 16, ptr nonnull %4)
  ret i1 %20
}